target datalayout = "e-m:e-p270:32:32-p271:32:32-p272:64:64-i64:64-i128:128-f80:128-n8:16:32:64-S128"
target triple = "x86_64-pc-linux-gnu"

@.str = private unnamed_addr constant [30 x i8] c"../openssl/crypto/ui/ui_lib.c\00", align 1

; Function Attrs: nounwind uwtable
define i32 @UI_dup_input_string(ptr noundef %0, ptr noundef %1, i32 noundef %2, ptr noundef %3, i32 noundef %4, i32 noundef %5) #0 {
  %7 = alloca i32, align 4
  %8 = alloca ptr, align 8
  %9 = alloca ptr, align 8
  %10 = alloca i32, align 4
  %11 = alloca ptr, align 8
  %12 = alloca i32, align 4
  %13 = alloca i32, align 4
  %14 = alloca ptr, align 8
  %15 = alloca i32, align 4
  store ptr %0, ptr %8, align 8, !tbaa !8
  store ptr %1, ptr %9, align 8, !tbaa !34
  store i32 %2, ptr %10, align 4, !tbaa !35
  store ptr %3, ptr %11, align 8, !tbaa !34
  store i32 %4, ptr %12, align 4, !tbaa !35
  store i32 %5, ptr %13, align 4, !tbaa !35
  call void @llvm.lifetime.start.p0(i64 8, ptr %14) #7
  store ptr null, ptr %14, align 8, !tbaa !34
  %16 = load ptr, ptr %9, align 8, !tbaa !34
  %17 = icmp ne ptr %16, null
  br i1 %17, label %18, label %25

18:                                               ; preds = %6
  %19 = load ptr, ptr %9, align 8, !tbaa !34
  %20 = call noalias ptr @CRYPTO_strdup(ptr noundef %19, ptr noundef @.str, i32 noundef 210)
  store ptr %20, ptr %14, align 8, !tbaa !34
  %21 = load ptr, ptr %14, align 8, !tbaa !34
  %22 = icmp eq ptr %21, null
  br i1 %22, label %23, label %24

23:                                               ; preds = %18
  store i32 0, ptr %7, align 4
  store i32 1, ptr %15, align 4
  br label %33

24:                                               ; preds = %18
  br label %25

25:                                               ; preds = %24, %6
  %26 = load ptr, ptr %8, align 8, !tbaa !8
  %27 = load ptr, ptr %14, align 8, !tbaa !34
  %28 = load i32, ptr %10, align 4, !tbaa !35
  %29 = load ptr, ptr %11, align 8, !tbaa !34
  %30 = load i32, ptr %12, align 4, !tbaa !35
  %31 = load i32, ptr %13, align 4, !tbaa !35
  %32 = call i32 @general_allocate_string(ptr noundef %26, ptr noundef %27, i32 noundef 1, i32 noundef 1, i32 noundef %28, ptr noundef %29, i32 noundef %30, i32 noundef %31, ptr noundef null)
  store i32 %32, ptr %7, align 4
  store i32 1, ptr %15, align 4
  br label %33

33:                                               ; preds = %25, %23
  call void @llvm.lifetime.end.p0(i64 8, ptr %14) #7
  %34 = load i32, ptr %7, align 4
  ret i32 %34
}