; Function Attrs: nounwind uwtable
define i32 @UI_dup_input_string(ptr noundef captures(none) %0, ptr noundef %1, i32 noundef %2, ptr noundef %3, i32 noundef %4, i32 noundef %5) local_unnamed_addr #0 {
  %.not = icmp eq ptr %1, null
  br i1 %.not, label %10, label %7

7:                                                ; preds = %6
  %8 = tail call noalias ptr @CRYPTO_strdup(ptr noundef nonnull %1, ptr noundef nonnull @.str, i32 noundef 210) #8
  %9 = icmp eq ptr %8, null
  br i1 %9, label %12, label %10

10:                                               ; preds = %7, %6
  %.0 = phi ptr [ %8, %7 ], [ null, %6 ]
  %11 = tail call fastcc i32 @general_allocate_string(ptr noundef %0, ptr noundef %.0, i32 noundef 1, i32 noundef 1, i32 noundef %2, ptr noundef %3, i32 noundef %4, i32 noundef %5, ptr noundef null)
  br label %12

12:                                               ; preds = %7, %10
  %.09 = phi i32 [ %11, %10 ], [ 0, %7 ]
  ret i32 %.09
}